target datalayout = "e-m:e-p270:32:32-p271:32:32-p272:64:64-i64:64-i128:128-f80:128-n8:16:32:64-S128"
target triple = "x86_64-pc-linux-gnu"

%struct.hb_outline_point_t = type { float, float, i32 }
%struct.hb_outline_t = type { %struct.hb_vector_t, %struct.hb_vector_t.0 }
%struct.hb_vector_t = type { i32, i32, ptr }
%struct.hb_vector_t.0 = type { i32, i32, ptr }

@_hb_NullPool = external constant [80 x i64], align 16

; Function Attrs: mustprogress nounwind uwtable
define linkonce_odr hidden noundef nonnull align 4 dereferenceable(12) ptr @_ZN4NullI18hb_outline_point_tE8get_nullEv() #2 comdat align 2 {
  ret ptr @_hb_NullPool
}

; Function Attrs: mustprogress uwtable
define linkonce_odr hidden noundef nonnull align 4 dereferenceable(12) ptr @_ZN10NullHelperI18hb_outline_point_tE8get_nullEv() #0 comdat align 2 {
  %1 = call noundef nonnull align 4 dereferenceable(12) ptr @_ZN4NullI18hb_outline_point_tE8get_nullEv()
  ret ptr %1
}

; Function Attrs: mustprogress uwtable
define linkonce_odr hidden noundef nonnull align 4 dereferenceable(12) ptr @_ZNK11hb_vector_tI18hb_outline_point_tLb0EEixEi(ptr noundef nonnull align 8 dereferenceable(16) %0, i32 noundef %1) #0 comdat align 2 {
  %3 = alloca ptr, align 8
  %4 = alloca ptr, align 8
  %5 = alloca i32, align 4
  %6 = alloca i32, align 4
  store ptr %0, ptr %4, align 8
  store i32 %1, ptr %5, align 4
  %7 = load ptr, ptr %4, align 8
  %8 = load i32, ptr %5, align 4
  store i32 %8, ptr %6, align 4
  %9 = load i32, ptr %6, align 4
  %10 = getelementptr inbounds %struct.hb_vector_t, ptr %7, i32 0, i32 1
  %11 = load i32, ptr %10, align 4
  %12 = icmp uge i32 %9, %11
  br i1 %12, label %13, label %15

13:                                               ; preds = %2
  %14 = call noundef nonnull align 4 dereferenceable(12) ptr @_ZN10NullHelperI18hb_outline_point_tE8get_nullEv()
  store ptr %14, ptr %3, align 8
  br label %21

15:                                               ; preds = %2
  %16 = getelementptr inbounds %struct.hb_vector_t, ptr %7, i32 0, i32 2
  %17 = load ptr, ptr %16, align 8
  %18 = load i32, ptr %6, align 4
  %19 = zext i32 %18 to i64
  %20 = getelementptr inbounds %struct.hb_outline_point_t, ptr %17, i64 %19
  store ptr %20, ptr %3, align 8
  br label %21

21:                                               ; preds = %15, %13
  %22 = load ptr, ptr %3, align 8
  ret ptr %22
}

; Function Attrs: mustprogress nounwind uwtable
define linkonce_odr hidden noundef ptr @_ZNK11hb_vector_tIjLb0EE3endEv(ptr noundef nonnull align 8 dereferenceable(16) %0) #2 comdat align 2 {
  %2 = alloca ptr, align 8
  store ptr %0, ptr %2, align 8
  %3 = load ptr, ptr %2, align 8
  %4 = getelementptr inbounds %struct.hb_vector_t.0, ptr %3, i32 0, i32 2
  %5 = load ptr, ptr %4, align 8
  %6 = getelementptr inbounds %struct.hb_vector_t.0, ptr %3, i32 0, i32 1
  %7 = load i32, ptr %6, align 4
  %8 = zext i32 %7 to i64
  %9 = getelementptr inbounds i32, ptr %5, i64 %8
  ret ptr %9
}

; Function Attrs: mustprogress nounwind uwtable
define linkonce_odr hidden noundef ptr @_ZNK11hb_vector_tIjLb0EE5beginEv(ptr noundef nonnull align 8 dereferenceable(16) %0) #2 comdat align 2 {
  %2 = alloca ptr, align 8
  store ptr %0, ptr %2, align 8
  %3 = load ptr, ptr %2, align 8
  %4 = getelementptr inbounds %struct.hb_vector_t.0, ptr %3, i32 0, i32 2
  %5 = load ptr, ptr %4, align 8
  ret ptr %5
}

; Function Attrs: mustprogress uwtable
define hidden noundef float @_ZNK12hb_outline_t12control_areaEv(ptr noundef nonnull align 8 dereferenceable(32) %0) #0 align 2 {
  %2 = alloca ptr, align 8
  %3 = alloca float, align 4
  %4 = alloca i32, align 4
  %5 = alloca ptr, align 8
  %6 = alloca ptr, align 8
  %7 = alloca ptr, align 8
  %8 = alloca i32, align 4
  %9 = alloca i32, align 4
  %10 = alloca i32, align 4
  %11 = alloca ptr, align 8
  %12 = alloca ptr, align 8
  store ptr %0, ptr %2, align 8
  %13 = load ptr, ptr %2, align 8
  store float 0.000000e+00, ptr %3, align 4
  store i32 0, ptr %4, align 4
  %14 = getelementptr inbounds %struct.hb_outline_t, ptr %13, i32 0, i32 1
  store ptr %14, ptr %5, align 8
  %15 = load ptr, ptr %5, align 8
  %16 = call noundef ptr @_ZNK11hb_vector_tIjLb0EE5beginEv(ptr noundef nonnull align 8 dereferenceable(16) %15)
  store ptr %16, ptr %6, align 8
  %17 = load ptr, ptr %5, align 8
  %18 = call noundef ptr @_ZNK11hb_vector_tIjLb0EE3endEv(ptr noundef nonnull align 8 dereferenceable(16) %17)
  store ptr %18, ptr %7, align 8
  br label %19

19:                                               ; preds = %71, %1
  %20 = load ptr, ptr %6, align 8
  %21 = load ptr, ptr %7, align 8
  %22 = icmp ne ptr %20, %21
  br i1 %22, label %23, label %74

23:                                               ; preds = %19
  %24 = load ptr, ptr %6, align 8
  %25 = load i32, ptr %24, align 4
  store i32 %25, ptr %8, align 4
  %26 = load i32, ptr %4, align 4
  store i32 %26, ptr %9, align 4
  br label %27

27:                                               ; preds = %66, %23
  %28 = load i32, ptr %9, align 4
  %29 = load i32, ptr %8, align 4
  %30 = icmp ult i32 %28, %29
  br i1 %30, label %31, label %69

31:                                               ; preds = %27
  %32 = load i32, ptr %9, align 4
  %33 = add i32 %32, 1
  %34 = load i32, ptr %8, align 4
  %35 = icmp ult i32 %33, %34
  br i1 %35, label %36, label %39

36:                                               ; preds = %31
  %37 = load i32, ptr %9, align 4
  %38 = add i32 %37, 1
  br label %41

39:                                               ; preds = %31
  %40 = load i32, ptr %4, align 4
  br label %41

41:                                               ; preds = %39, %36
  %42 = phi i32 [ %38, %36 ], [ %40, %39 ]
  store i32 %42, ptr %10, align 4
  %43 = getelementptr inbounds %struct.hb_outline_t, ptr %13, i32 0, i32 0
  %44 = load i32, ptr %9, align 4
  %45 = call noundef nonnull align 4 dereferenceable(12) ptr @_ZNK11hb_vector_tI18hb_outline_point_tLb0EEixEi(ptr noundef nonnull align 8 dereferenceable(16) %43, i32 noundef %44)
  store ptr %45, ptr %11, align 8
  %46 = getelementptr inbounds %struct.hb_outline_t, ptr %13, i32 0, i32 0
  %47 = load i32, ptr %10, align 4
  %48 = call noundef nonnull align 4 dereferenceable(12) ptr @_ZNK11hb_vector_tI18hb_outline_point_tLb0EEixEi(ptr noundef nonnull align 8 dereferenceable(16) %46, i32 noundef %47)
  store ptr %48, ptr %12, align 8
  %49 = load ptr, ptr %11, align 8
  %50 = getelementptr inbounds %struct.hb_outline_point_t, ptr %49, i32 0, i32 0
  %51 = load float, ptr %50, align 4
  %52 = load ptr, ptr %12, align 8
  %53 = getelementptr inbounds %struct.hb_outline_point_t, ptr %52, i32 0, i32 1
  %54 = load float, ptr %53, align 4
  %55 = load ptr, ptr %11, align 8
  %56 = getelementptr inbounds %struct.hb_outline_point_t, ptr %55, i32 0, i32 1
  %57 = load float, ptr %56, align 4
  %58 = load ptr, ptr %12, align 8
  %59 = getelementptr inbounds %struct.hb_outline_point_t, ptr %58, i32 0, i32 0
  %60 = load float, ptr %59, align 4
  %61 = fmul float %57, %60
  %62 = fneg float %61
  %63 = call float @llvm.fmuladd.f32(float %51, float %54, float %62)
  %64 = load float, ptr %3, align 4
  %65 = fadd float %64, %63
  store float %65, ptr %3, align 4
  br label %66

66:                                               ; preds = %41
  %67 = load i32, ptr %9, align 4
  %68 = add i32 %67, 1
  store i32 %68, ptr %9, align 4
  br label %27, !llvm.loop !8

69:                                               ; preds = %27
  %70 = load i32, ptr %8, align 4
  store i32 %70, ptr %4, align 4
  br label %71

71:                                               ; preds = %69
  %72 = load ptr, ptr %6, align 8
  %73 = getelementptr inbounds i32, ptr %72, i32 1
  store ptr %73, ptr %6, align 8
  br label %19

74:                                               ; preds = %19
  %75 = load float, ptr %3, align 4
  %76 = fmul float %75, 5.000000e-01
  ret float %76
}