; Function Attrs: mustprogress nofree norecurse nosync nounwind willreturn memory(read, inaccessiblemem: none) uwtable
define hidden noundef float @_ZNK12hb_outline_t12control_areaEv(ptr nocapture noundef nonnull readonly align 8 dereferenceable(32) %0) local_unnamed_addr #3 align 2 {
  %2 = getelementptr inbounds i8, ptr %0, i64 24
  %3 = load ptr, ptr %2, align 8
  %4 = getelementptr inbounds i8, ptr %0, i64 20
  %5 = load i32, ptr %4, align 4
  %6 = zext i32 %5 to i64
  %7 = getelementptr inbounds i32, ptr %3, i64 %6
  %.not32 = icmp eq i32 %5, 0
  br i1 %.not32, label %._crit_edge38, label %.lr.ph37

.lr.ph37:                                         ; preds = %1
  %8 = getelementptr inbounds i8, ptr %0, i64 4
  %9 = load i32, ptr %8, align 4
  %10 = getelementptr inbounds i8, ptr %0, i64 8
  %11 = load ptr, ptr %10, align 8
  %12 = zext i32 %9 to i64
  br label %13

13:                                               ; preds = %.lr.ph37, %._crit_edge
  %.035 = phi float [ 0.000000e+00, %.lr.ph37 ], [ %.1.lcssa, %._crit_edge ]
  %.02334 = phi i32 [ 0, %.lr.ph37 ], [ %14, %._crit_edge ]
  %.02433 = phi ptr [ %3, %.lr.ph37 ], [ %34, %._crit_edge ]
  %14 = load i32, ptr %.02433, align 4
  %15 = icmp ult i32 %.02334, %14
  br i1 %15, label %.lr.ph.preheader, label %._crit_edge

.lr.ph.preheader:                                 ; preds = %13
  %16 = zext i32 %.02334 to i64
  %17 = zext i32 %14 to i64
  br label %.lr.ph

.lr.ph:                                           ; preds = %.lr.ph.preheader, %.lr.ph
  %indvars.iv = phi i64 [ %16, %.lr.ph.preheader ], [ %indvars.iv.next, %.lr.ph ]
  %.131 = phi float [ %.035, %.lr.ph.preheader ], [ %33, %.lr.ph ]
  %indvars.iv.next = add nuw nsw i64 %indvars.iv, 1
  %18 = icmp ult i64 %indvars.iv.next, %17
  %19 = trunc nuw i64 %indvars.iv.next to i32
  %20 = select i1 %18, i32 %19, i32 %.02334
  %.not.i = icmp ult i64 %indvars.iv, %12
  %21 = getelementptr inbounds %struct.hb_outline_point_t, ptr %11, i64 %indvars.iv
  %.0.i = select i1 %.not.i, ptr %21, ptr @_hb_NullPool
  %.not.i28 = icmp ugt i32 %9, %20
  %22 = zext i32 %20 to i64
  %23 = getelementptr inbounds %struct.hb_outline_point_t, ptr %11, i64 %22
  %.0.i29 = select i1 %.not.i28, ptr %23, ptr @_hb_NullPool
  %24 = load float, ptr %.0.i, align 4
  %25 = getelementptr inbounds i8, ptr %.0.i29, i64 4
  %26 = load float, ptr %25, align 4
  %27 = getelementptr inbounds i8, ptr %.0.i, i64 4
  %28 = load float, ptr %27, align 4
  %29 = load float, ptr %.0.i29, align 4
  %30 = fneg float %28
  %31 = fmul float %29, %30
  %32 = tail call float @llvm.fmuladd.f32(float %24, float %26, float %31)
  %33 = fadd float %.131, %32
  %exitcond.not = icmp eq i64 %indvars.iv.next, %17
  br i1 %exitcond.not, label %._crit_edge, label %.lr.ph, !llvm.loop !8

._crit_edge:                                      ; preds = %.lr.ph, %13
  %.1.lcssa = phi float [ %.035, %13 ], [ %33, %.lr.ph ]
  %34 = getelementptr inbounds i8, ptr %.02433, i64 4
  %.not = icmp eq ptr %34, %7
  br i1 %.not, label %._crit_edge38.loopexit, label %13

._crit_edge38.loopexit:                           ; preds = %._crit_edge
  %35 = fmul float %.1.lcssa, 5.000000e-01
  br label %._crit_edge38

._crit_edge38:                                    ; preds = %._crit_edge38.loopexit, %1
  %.0.lcssa = phi float [ 0.000000e+00, %1 ], [ %35, %._crit_edge38.loopexit ]
  ret float %.0.lcssa
}